; Function Attrs: nofree norecurse nosync nounwind memory(readwrite, inaccessiblemem: none) uwtable
define internal void @SDL_Blit_XBGR8888_XRGB8888_Blend_Scale(ptr noundef captures(none) %0) #0 {
  %2 = getelementptr inbounds nuw i8, ptr %0, i64 112
  %3 = load i32, ptr %2, align 8
  %4 = getelementptr inbounds nuw i8, ptr %0, i64 20
  %5 = load i32, ptr %4, align 4
  %6 = sext i32 %5 to i64
  %7 = shl nsw i64 %6, 16
  %8 = getelementptr inbounds nuw i8, ptr %0, i64 52
  %9 = load i32, ptr %8, align 4
  %10 = sext i32 %9 to i64
  %11 = udiv i64 %7, %10
  %12 = getelementptr inbounds nuw i8, ptr %0, i64 16
  %13 = load i32, ptr %12, align 8
  %14 = sext i32 %13 to i64
  %15 = shl nsw i64 %14, 16
  %16 = getelementptr inbounds nuw i8, ptr %0, i64 48
  %17 = load i32, ptr %16, align 8
  %18 = sext i32 %17 to i64
  %19 = udiv i64 %15, %18
  %20 = add nsw i32 %9, -1
  store i32 %20, ptr %8, align 4
  %.not100 = icmp eq i32 %9, 0
  br i1 %.not100, label %._crit_edge104, label %.lr.ph103

.lr.ph103:                                        ; preds = %1
  %21 = getelementptr inbounds nuw i8, ptr %0, i64 40
  %22 = lshr i64 %19, 1
  %23 = getelementptr inbounds nuw i8, ptr %0, i64 8
  %24 = getelementptr inbounds nuw i8, ptr %0, i64 24
  %25 = and i32 %3, 1008
  %26 = getelementptr inbounds nuw i8, ptr %0, i64 56
  %27 = icmp eq i32 %17, 0
  br i1 %27, label %.lr.ph103.split.us, label %.lr.ph103.split.preheader

.lr.ph103.split.preheader:                        ; preds = %.lr.ph103
  %28 = lshr i64 %11, 1
  %.pre = load ptr, ptr %21, align 8
  br label %.lr.ph103.split

.lr.ph103.split.us:                               ; preds = %.lr.ph103
  %29 = load i32, ptr %26, align 8
  %30 = sext i32 %29 to i64
  %.promoted = load ptr, ptr %21, align 8
  %31 = zext i32 %9 to i64
  %32 = mul nsw i64 %31, %30
  %scevgep = getelementptr i8, ptr %.promoted, i64 %32
  store ptr %scevgep, ptr %21, align 8
  store i32 -1, ptr %8, align 4
  br label %._crit_edge104

.lr.ph103.split:                                  ; preds = %.lr.ph103.split.preheader, %._crit_edge
  %33 = phi i32 [ %108, %._crit_edge ], [ %20, %.lr.ph103.split.preheader ]
  %34 = phi ptr [ %107, %._crit_edge ], [ %.pre, %.lr.ph103.split.preheader ]
  %.092101 = phi i64 [ %104, %._crit_edge ], [ %28, %.lr.ph103.split.preheader ]
  %35 = load i32, ptr %16, align 8
  %36 = lshr i64 %.092101, 16
  %.not9697 = icmp eq i32 %35, 0
  br i1 %.not9697, label %._crit_edge, label %.lr.ph

.lr.ph:                                           ; preds = %.lr.ph103.split, %95
  %.in = phi i32 [ %37, %95 ], [ %35, %.lr.ph103.split ]
  %.09399 = phi i64 [ %100, %95 ], [ %22, %.lr.ph103.split ]
  %.09598 = phi ptr [ %101, %95 ], [ %34, %.lr.ph103.split ]
  %37 = add nsw i32 %.in, -1
  %38 = load ptr, ptr %23, align 8
  %39 = load i32, ptr %24, align 8
  %40 = sext i32 %39 to i64
  %41 = mul i64 %36, %40
  %42 = getelementptr inbounds nuw i8, ptr %38, i64 %41
  %43 = lshr i64 %.09399, 14
  %44 = and i64 %43, 1125899906842620
  %45 = getelementptr inbounds nuw i8, ptr %42, i64 %44
  %46 = load i32, ptr %45, align 4
  %47 = lshr i32 %46, 16
  %48 = and i32 %47, 255
  %49 = lshr i32 %46, 8
  %50 = and i32 %49, 255
  %51 = and i32 %46, 255
  %52 = load i32, ptr %.09598, align 4
  %53 = lshr i32 %52, 16
  %54 = and i32 %53, 255
  %55 = lshr i32 %52, 8
  %56 = and i32 %55, 255
  %57 = and i32 %52, 255
  switch i32 %25, label %95 [
    i32 16, label %58
    i32 32, label %58
    i32 64, label %59
    i32 128, label %59
    i32 256, label %63
    i32 512, label %79
  ]

58:                                               ; preds = %.lr.ph, %.lr.ph
  br label %95

59:                                               ; preds = %.lr.ph, %.lr.ph
  %60 = add nuw nsw i32 %54, %51
  %spec.store.select = tail call i32 @llvm.umin.i32(i32 %60, i32 255)
  %61 = add nuw nsw i32 %56, %50
  %spec.store.select2 = tail call i32 @llvm.umin.i32(i32 %61, i32 255)
  %62 = add nuw nsw i32 %48, %57
  %spec.store.select1 = tail call i32 @llvm.umin.i32(i32 %62, i32 255)
  br label %95

63:                                               ; preds = %.lr.ph
  %64 = mul nuw nsw i32 %54, %51
  %65 = add nuw nsw i32 %64, 1
  %66 = lshr i32 %65, 8
  %67 = add nuw nsw i32 %66, %65
  %68 = lshr i32 %67, 8
  %69 = mul nuw nsw i32 %56, %50
  %70 = add nuw nsw i32 %69, 1
  %71 = lshr i32 %70, 8
  %72 = add nuw nsw i32 %71, %70
  %73 = lshr i32 %72, 8
  %74 = mul nuw nsw i32 %48, %57
  %75 = add nuw nsw i32 %74, 1
  %76 = lshr i32 %75, 8
  %77 = add nuw nsw i32 %76, %75
  %78 = lshr i32 %77, 8
  br label %95

79:                                               ; preds = %.lr.ph
  %80 = mul nuw nsw i32 %54, %51
  %81 = add nuw nsw i32 %80, 1
  %82 = lshr i32 %81, 8
  %83 = add nuw nsw i32 %82, %81
  %84 = lshr i32 %83, 8
  %85 = mul nuw nsw i32 %56, %50
  %86 = add nuw nsw i32 %85, 1
  %87 = lshr i32 %86, 8
  %88 = add nuw nsw i32 %87, %86
  %89 = lshr i32 %88, 8
  %90 = mul nuw nsw i32 %48, %57
  %91 = add nuw nsw i32 %90, 1
  %92 = lshr i32 %91, 8
  %93 = add nuw nsw i32 %92, %91
  %94 = lshr i32 %93, 8
  br label %95

95:                                               ; preds = %79, %63, %59, %58, %.lr.ph
  %.091 = phi i32 [ %57, %.lr.ph ], [ %94, %79 ], [ %78, %63 ], [ %spec.store.select1, %59 ], [ %48, %58 ]
  %.090 = phi i32 [ %56, %.lr.ph ], [ %89, %79 ], [ %73, %63 ], [ %spec.store.select2, %59 ], [ %50, %58 ]
  %.0 = phi i32 [ %54, %.lr.ph ], [ %84, %79 ], [ %68, %63 ], [ %spec.store.select, %59 ], [ %51, %58 ]
  %96 = shl nuw nsw i32 %.0, 16
  %97 = shl nuw nsw i32 %.090, 8
  %98 = add nuw nsw i32 %96, %97
  %99 = add nuw nsw i32 %98, %.091
  store i32 %99, ptr %.09598, align 4
  %100 = add i64 %.09399, %19
  %101 = getelementptr inbounds nuw i8, ptr %.09598, i64 4
  %.not96 = icmp eq i32 %37, 0
  br i1 %.not96, label %._crit_edge.loopexit, label %.lr.ph, !llvm.loop !65

._crit_edge.loopexit:                             ; preds = %95
  %.pre108 = load ptr, ptr %21, align 8
  %.pre109 = load i32, ptr %8, align 4
  br label %._crit_edge

._crit_edge:                                      ; preds = %._crit_edge.loopexit, %.lr.ph103.split
  %102 = phi i32 [ %.pre109, %._crit_edge.loopexit ], [ %33, %.lr.ph103.split ]
  %103 = phi ptr [ %.pre108, %._crit_edge.loopexit ], [ %34, %.lr.ph103.split ]
  %104 = add i64 %.092101, %11
  %105 = load i32, ptr %26, align 8
  %106 = sext i32 %105 to i64
  %107 = getelementptr inbounds i8, ptr %103, i64 %106
  store ptr %107, ptr %21, align 8
  %108 = add nsw i32 %102, -1
  store i32 %108, ptr %8, align 4
  %.not = icmp eq i32 %102, 0
  br i1 %.not, label %._crit_edge104, label %.lr.ph103.split, !llvm.loop !66

._crit_edge104:                                   ; preds = %._crit_edge, %.lr.ph103.split.us, %1
  ret void
}